ARM GAS  C:\Users\KasperSK\AppData\Local\Temp\ccIN3L7O.s 			page 1


   1              		.cpu cortex-m0
   2              		.fpu softvfp
   3              		.eabi_attribute 20, 1
   4              		.eabi_attribute 21, 1
   5              		.eabi_attribute 23, 3
   6              		.eabi_attribute 24, 1
   7              		.eabi_attribute 25, 1
   8              		.eabi_attribute 26, 1
   9              		.eabi_attribute 30, 6
  10              		.eabi_attribute 34, 0
  11              		.eabi_attribute 18, 4
  12              		.code	16
  13              		.file	"UART_SCB_IRQ.c"
  14              		.text
  15              	.Ltext0:
  16              		.cfi_sections	.debug_frame
  17              		.section	.text.UART_SCB_IRQ_Start,"ax",%progbits
  18              		.align	2
  19              		.global	UART_SCB_IRQ_Start
  20              		.code	16
  21              		.thumb_func
  22              		.type	UART_SCB_IRQ_Start, %function
  23              	UART_SCB_IRQ_Start:
  24              	.LFB33:
  25              		.file 1 ".\\Generated_Source\\PSoC4\\UART_SCB_IRQ.c"
   1:.\Generated_Source\PSoC4/UART_SCB_IRQ.c **** /*******************************************************************************
   2:.\Generated_Source\PSoC4/UART_SCB_IRQ.c **** * File Name: UART_SCB_IRQ.c  
   3:.\Generated_Source\PSoC4/UART_SCB_IRQ.c **** * Version 1.70
   4:.\Generated_Source\PSoC4/UART_SCB_IRQ.c **** *
   5:.\Generated_Source\PSoC4/UART_SCB_IRQ.c **** *  Description:
   6:.\Generated_Source\PSoC4/UART_SCB_IRQ.c **** *   API for controlling the state of an interrupt.
   7:.\Generated_Source\PSoC4/UART_SCB_IRQ.c **** *
   8:.\Generated_Source\PSoC4/UART_SCB_IRQ.c **** *
   9:.\Generated_Source\PSoC4/UART_SCB_IRQ.c **** *  Note:
  10:.\Generated_Source\PSoC4/UART_SCB_IRQ.c **** *
  11:.\Generated_Source\PSoC4/UART_SCB_IRQ.c **** ********************************************************************************
  12:.\Generated_Source\PSoC4/UART_SCB_IRQ.c **** * Copyright 2008-2012, Cypress Semiconductor Corporation.  All rights reserved.
  13:.\Generated_Source\PSoC4/UART_SCB_IRQ.c **** * You may use this file only in accordance with the license, terms, conditions, 
  14:.\Generated_Source\PSoC4/UART_SCB_IRQ.c **** * disclaimers, and limitations in the end user license agreement accompanying 
  15:.\Generated_Source\PSoC4/UART_SCB_IRQ.c **** * the software package with which this file was provided.
  16:.\Generated_Source\PSoC4/UART_SCB_IRQ.c **** *******************************************************************************/
  17:.\Generated_Source\PSoC4/UART_SCB_IRQ.c **** 
  18:.\Generated_Source\PSoC4/UART_SCB_IRQ.c **** 
  19:.\Generated_Source\PSoC4/UART_SCB_IRQ.c **** #include <cydevice_trm.h>
  20:.\Generated_Source\PSoC4/UART_SCB_IRQ.c **** #include <CyLib.h>
  21:.\Generated_Source\PSoC4/UART_SCB_IRQ.c **** #include <UART_SCB_IRQ.h>
  22:.\Generated_Source\PSoC4/UART_SCB_IRQ.c **** #include <project.h>
  23:.\Generated_Source\PSoC4/UART_SCB_IRQ.c **** 
  24:.\Generated_Source\PSoC4/UART_SCB_IRQ.c **** #if !defined(UART_SCB_IRQ__REMOVED) /* Check for removal by optimization */
  25:.\Generated_Source\PSoC4/UART_SCB_IRQ.c **** 
  26:.\Generated_Source\PSoC4/UART_SCB_IRQ.c **** /*******************************************************************************
  27:.\Generated_Source\PSoC4/UART_SCB_IRQ.c **** *  Place your includes, defines and code here 
  28:.\Generated_Source\PSoC4/UART_SCB_IRQ.c **** ********************************************************************************/
  29:.\Generated_Source\PSoC4/UART_SCB_IRQ.c **** /* `#START UART_SCB_IRQ_intc` */
  30:.\Generated_Source\PSoC4/UART_SCB_IRQ.c **** 
  31:.\Generated_Source\PSoC4/UART_SCB_IRQ.c **** /* `#END` */
  32:.\Generated_Source\PSoC4/UART_SCB_IRQ.c **** 
ARM GAS  C:\Users\KasperSK\AppData\Local\Temp\ccIN3L7O.s 			page 2


  33:.\Generated_Source\PSoC4/UART_SCB_IRQ.c **** extern cyisraddress CyRamVectors[CYINT_IRQ_BASE + CY_NUM_INTERRUPTS];
  34:.\Generated_Source\PSoC4/UART_SCB_IRQ.c **** 
  35:.\Generated_Source\PSoC4/UART_SCB_IRQ.c **** /* Declared in startup, used to set unused interrupts to. */
  36:.\Generated_Source\PSoC4/UART_SCB_IRQ.c **** CY_ISR_PROTO(IntDefaultHandler);
  37:.\Generated_Source\PSoC4/UART_SCB_IRQ.c **** 
  38:.\Generated_Source\PSoC4/UART_SCB_IRQ.c **** 
  39:.\Generated_Source\PSoC4/UART_SCB_IRQ.c **** /*******************************************************************************
  40:.\Generated_Source\PSoC4/UART_SCB_IRQ.c **** * Function Name: UART_SCB_IRQ_Start
  41:.\Generated_Source\PSoC4/UART_SCB_IRQ.c **** ********************************************************************************
  42:.\Generated_Source\PSoC4/UART_SCB_IRQ.c **** *
  43:.\Generated_Source\PSoC4/UART_SCB_IRQ.c **** * Summary:
  44:.\Generated_Source\PSoC4/UART_SCB_IRQ.c **** *  Set up the interrupt and enable it.
  45:.\Generated_Source\PSoC4/UART_SCB_IRQ.c **** *
  46:.\Generated_Source\PSoC4/UART_SCB_IRQ.c **** * Parameters:  
  47:.\Generated_Source\PSoC4/UART_SCB_IRQ.c **** *   None
  48:.\Generated_Source\PSoC4/UART_SCB_IRQ.c **** *
  49:.\Generated_Source\PSoC4/UART_SCB_IRQ.c **** * Return:
  50:.\Generated_Source\PSoC4/UART_SCB_IRQ.c **** *   None
  51:.\Generated_Source\PSoC4/UART_SCB_IRQ.c **** *
  52:.\Generated_Source\PSoC4/UART_SCB_IRQ.c **** *******************************************************************************/
  53:.\Generated_Source\PSoC4/UART_SCB_IRQ.c **** void UART_SCB_IRQ_Start(void)
  54:.\Generated_Source\PSoC4/UART_SCB_IRQ.c **** {
  26              		.loc 1 54 0
  27              		.cfi_startproc
  28 0000 80B5     		push	{r7, lr}
  29              		.cfi_def_cfa_offset 8
  30              		.cfi_offset 7, -8
  31              		.cfi_offset 14, -4
  32 0002 00AF     		add	r7, sp, #0
  33              		.cfi_def_cfa_register 7
  55:.\Generated_Source\PSoC4/UART_SCB_IRQ.c ****     /* For all we know the interrupt is active. */
  56:.\Generated_Source\PSoC4/UART_SCB_IRQ.c ****     UART_SCB_IRQ_Disable();
  34              		.loc 1 56 0
  35 0004 FFF7FEFF 		bl	UART_SCB_IRQ_Disable
  57:.\Generated_Source\PSoC4/UART_SCB_IRQ.c **** 
  58:.\Generated_Source\PSoC4/UART_SCB_IRQ.c ****     /* Set the ISR to point to the UART_SCB_IRQ Interrupt. */
  59:.\Generated_Source\PSoC4/UART_SCB_IRQ.c ****     UART_SCB_IRQ_SetVector(&UART_SCB_IRQ_Interrupt);
  36              		.loc 1 59 0
  37 0008 054B     		ldr	r3, .L2
  38 000a 181C     		mov	r0, r3
  39 000c FFF7FEFF 		bl	UART_SCB_IRQ_SetVector
  60:.\Generated_Source\PSoC4/UART_SCB_IRQ.c **** 
  61:.\Generated_Source\PSoC4/UART_SCB_IRQ.c ****     /* Set the priority. */
  62:.\Generated_Source\PSoC4/UART_SCB_IRQ.c ****     UART_SCB_IRQ_SetPriority((uint8)UART_SCB_IRQ_INTC_PRIOR_NUMBER);
  40              		.loc 1 62 0
  41 0010 0320     		mov	r0, #3
  42 0012 FFF7FEFF 		bl	UART_SCB_IRQ_SetPriority
  63:.\Generated_Source\PSoC4/UART_SCB_IRQ.c **** 
  64:.\Generated_Source\PSoC4/UART_SCB_IRQ.c ****     /* Enable it. */
  65:.\Generated_Source\PSoC4/UART_SCB_IRQ.c ****     UART_SCB_IRQ_Enable();
  43              		.loc 1 65 0
  44 0016 FFF7FEFF 		bl	UART_SCB_IRQ_Enable
  66:.\Generated_Source\PSoC4/UART_SCB_IRQ.c **** }
  45              		.loc 1 66 0
  46 001a BD46     		mov	sp, r7
  47              		@ sp needed
  48 001c 80BD     		pop	{r7, pc}
ARM GAS  C:\Users\KasperSK\AppData\Local\Temp\ccIN3L7O.s 			page 3


  49              	.L3:
  50 001e C046     		.align	2
  51              	.L2:
  52 0020 00000000 		.word	UART_SCB_IRQ_Interrupt
  53              		.cfi_endproc
  54              	.LFE33:
  55              		.size	UART_SCB_IRQ_Start, .-UART_SCB_IRQ_Start
  56              		.section	.text.UART_SCB_IRQ_StartEx,"ax",%progbits
  57              		.align	2
  58              		.global	UART_SCB_IRQ_StartEx
  59              		.code	16
  60              		.thumb_func
  61              		.type	UART_SCB_IRQ_StartEx, %function
  62              	UART_SCB_IRQ_StartEx:
  63              	.LFB34:
  67:.\Generated_Source\PSoC4/UART_SCB_IRQ.c **** 
  68:.\Generated_Source\PSoC4/UART_SCB_IRQ.c **** 
  69:.\Generated_Source\PSoC4/UART_SCB_IRQ.c **** /*******************************************************************************
  70:.\Generated_Source\PSoC4/UART_SCB_IRQ.c **** * Function Name: UART_SCB_IRQ_StartEx
  71:.\Generated_Source\PSoC4/UART_SCB_IRQ.c **** ********************************************************************************
  72:.\Generated_Source\PSoC4/UART_SCB_IRQ.c **** *
  73:.\Generated_Source\PSoC4/UART_SCB_IRQ.c **** * Summary:
  74:.\Generated_Source\PSoC4/UART_SCB_IRQ.c **** *  Set up the interrupt and enable it.
  75:.\Generated_Source\PSoC4/UART_SCB_IRQ.c **** *
  76:.\Generated_Source\PSoC4/UART_SCB_IRQ.c **** * Parameters:  
  77:.\Generated_Source\PSoC4/UART_SCB_IRQ.c **** *   address: Address of the ISR to set in the interrupt vector table.
  78:.\Generated_Source\PSoC4/UART_SCB_IRQ.c **** *
  79:.\Generated_Source\PSoC4/UART_SCB_IRQ.c **** * Return:
  80:.\Generated_Source\PSoC4/UART_SCB_IRQ.c **** *   None
  81:.\Generated_Source\PSoC4/UART_SCB_IRQ.c **** *
  82:.\Generated_Source\PSoC4/UART_SCB_IRQ.c **** *******************************************************************************/
  83:.\Generated_Source\PSoC4/UART_SCB_IRQ.c **** void UART_SCB_IRQ_StartEx(cyisraddress address)
  84:.\Generated_Source\PSoC4/UART_SCB_IRQ.c **** {
  64              		.loc 1 84 0
  65              		.cfi_startproc
  66 0000 80B5     		push	{r7, lr}
  67              		.cfi_def_cfa_offset 8
  68              		.cfi_offset 7, -8
  69              		.cfi_offset 14, -4
  70 0002 82B0     		sub	sp, sp, #8
  71              		.cfi_def_cfa_offset 16
  72 0004 00AF     		add	r7, sp, #0
  73              		.cfi_def_cfa_register 7
  74 0006 7860     		str	r0, [r7, #4]
  85:.\Generated_Source\PSoC4/UART_SCB_IRQ.c ****     /* For all we know the interrupt is active. */
  86:.\Generated_Source\PSoC4/UART_SCB_IRQ.c ****     UART_SCB_IRQ_Disable();
  75              		.loc 1 86 0
  76 0008 FFF7FEFF 		bl	UART_SCB_IRQ_Disable
  87:.\Generated_Source\PSoC4/UART_SCB_IRQ.c **** 
  88:.\Generated_Source\PSoC4/UART_SCB_IRQ.c ****     /* Set the ISR to point to the UART_SCB_IRQ Interrupt. */
  89:.\Generated_Source\PSoC4/UART_SCB_IRQ.c ****     UART_SCB_IRQ_SetVector(address);
  77              		.loc 1 89 0
  78 000c 7B68     		ldr	r3, [r7, #4]
  79 000e 181C     		mov	r0, r3
  80 0010 FFF7FEFF 		bl	UART_SCB_IRQ_SetVector
  90:.\Generated_Source\PSoC4/UART_SCB_IRQ.c **** 
  91:.\Generated_Source\PSoC4/UART_SCB_IRQ.c ****     /* Set the priority. */
ARM GAS  C:\Users\KasperSK\AppData\Local\Temp\ccIN3L7O.s 			page 4


  92:.\Generated_Source\PSoC4/UART_SCB_IRQ.c ****     UART_SCB_IRQ_SetPriority((uint8)UART_SCB_IRQ_INTC_PRIOR_NUMBER);
  81              		.loc 1 92 0
  82 0014 0320     		mov	r0, #3
  83 0016 FFF7FEFF 		bl	UART_SCB_IRQ_SetPriority
  93:.\Generated_Source\PSoC4/UART_SCB_IRQ.c **** 
  94:.\Generated_Source\PSoC4/UART_SCB_IRQ.c ****     /* Enable it. */
  95:.\Generated_Source\PSoC4/UART_SCB_IRQ.c ****     UART_SCB_IRQ_Enable();
  84              		.loc 1 95 0
  85 001a FFF7FEFF 		bl	UART_SCB_IRQ_Enable
  96:.\Generated_Source\PSoC4/UART_SCB_IRQ.c **** }
  86              		.loc 1 96 0
  87 001e BD46     		mov	sp, r7
  88 0020 02B0     		add	sp, sp, #8
  89              		@ sp needed
  90 0022 80BD     		pop	{r7, pc}
  91              		.cfi_endproc
  92              	.LFE34:
  93              		.size	UART_SCB_IRQ_StartEx, .-UART_SCB_IRQ_StartEx
  94              		.section	.text.UART_SCB_IRQ_Stop,"ax",%progbits
  95              		.align	2
  96              		.global	UART_SCB_IRQ_Stop
  97              		.code	16
  98              		.thumb_func
  99              		.type	UART_SCB_IRQ_Stop, %function
 100              	UART_SCB_IRQ_Stop:
 101              	.LFB35:
  97:.\Generated_Source\PSoC4/UART_SCB_IRQ.c **** 
  98:.\Generated_Source\PSoC4/UART_SCB_IRQ.c **** 
  99:.\Generated_Source\PSoC4/UART_SCB_IRQ.c **** /*******************************************************************************
 100:.\Generated_Source\PSoC4/UART_SCB_IRQ.c **** * Function Name: UART_SCB_IRQ_Stop
 101:.\Generated_Source\PSoC4/UART_SCB_IRQ.c **** ********************************************************************************
 102:.\Generated_Source\PSoC4/UART_SCB_IRQ.c **** *
 103:.\Generated_Source\PSoC4/UART_SCB_IRQ.c **** * Summary:
 104:.\Generated_Source\PSoC4/UART_SCB_IRQ.c **** *   Disables and removes the interrupt.
 105:.\Generated_Source\PSoC4/UART_SCB_IRQ.c **** *
 106:.\Generated_Source\PSoC4/UART_SCB_IRQ.c **** * Parameters:  
 107:.\Generated_Source\PSoC4/UART_SCB_IRQ.c **** *
 108:.\Generated_Source\PSoC4/UART_SCB_IRQ.c **** * Return:
 109:.\Generated_Source\PSoC4/UART_SCB_IRQ.c **** *   None
 110:.\Generated_Source\PSoC4/UART_SCB_IRQ.c **** *
 111:.\Generated_Source\PSoC4/UART_SCB_IRQ.c **** *******************************************************************************/
 112:.\Generated_Source\PSoC4/UART_SCB_IRQ.c **** void UART_SCB_IRQ_Stop(void)
 113:.\Generated_Source\PSoC4/UART_SCB_IRQ.c **** {
 102              		.loc 1 113 0
 103              		.cfi_startproc
 104 0000 80B5     		push	{r7, lr}
 105              		.cfi_def_cfa_offset 8
 106              		.cfi_offset 7, -8
 107              		.cfi_offset 14, -4
 108 0002 00AF     		add	r7, sp, #0
 109              		.cfi_def_cfa_register 7
 114:.\Generated_Source\PSoC4/UART_SCB_IRQ.c ****     /* Disable this interrupt. */
 115:.\Generated_Source\PSoC4/UART_SCB_IRQ.c ****     UART_SCB_IRQ_Disable();
 110              		.loc 1 115 0
 111 0004 FFF7FEFF 		bl	UART_SCB_IRQ_Disable
 116:.\Generated_Source\PSoC4/UART_SCB_IRQ.c **** 
 117:.\Generated_Source\PSoC4/UART_SCB_IRQ.c ****     /* Set the ISR to point to the passive one. */
ARM GAS  C:\Users\KasperSK\AppData\Local\Temp\ccIN3L7O.s 			page 5


 118:.\Generated_Source\PSoC4/UART_SCB_IRQ.c ****     UART_SCB_IRQ_SetVector(&IntDefaultHandler);
 112              		.loc 1 118 0
 113 0008 024B     		ldr	r3, .L6
 114 000a 181C     		mov	r0, r3
 115 000c FFF7FEFF 		bl	UART_SCB_IRQ_SetVector
 119:.\Generated_Source\PSoC4/UART_SCB_IRQ.c **** }
 116              		.loc 1 119 0
 117 0010 BD46     		mov	sp, r7
 118              		@ sp needed
 119 0012 80BD     		pop	{r7, pc}
 120              	.L7:
 121              		.align	2
 122              	.L6:
 123 0014 00000000 		.word	IntDefaultHandler
 124              		.cfi_endproc
 125              	.LFE35:
 126              		.size	UART_SCB_IRQ_Stop, .-UART_SCB_IRQ_Stop
 127              		.section	.text.UART_SCB_IRQ_Interrupt,"ax",%progbits
 128              		.align	2
 129              		.global	UART_SCB_IRQ_Interrupt
 130              		.code	16
 131              		.thumb_func
 132              		.type	UART_SCB_IRQ_Interrupt, %function
 133              	UART_SCB_IRQ_Interrupt:
 134              	.LFB36:
 120:.\Generated_Source\PSoC4/UART_SCB_IRQ.c **** 
 121:.\Generated_Source\PSoC4/UART_SCB_IRQ.c **** 
 122:.\Generated_Source\PSoC4/UART_SCB_IRQ.c **** /*******************************************************************************
 123:.\Generated_Source\PSoC4/UART_SCB_IRQ.c **** * Function Name: UART_SCB_IRQ_Interrupt
 124:.\Generated_Source\PSoC4/UART_SCB_IRQ.c **** ********************************************************************************
 125:.\Generated_Source\PSoC4/UART_SCB_IRQ.c **** *
 126:.\Generated_Source\PSoC4/UART_SCB_IRQ.c **** * Summary:
 127:.\Generated_Source\PSoC4/UART_SCB_IRQ.c **** *   The default Interrupt Service Routine for UART_SCB_IRQ.
 128:.\Generated_Source\PSoC4/UART_SCB_IRQ.c **** *
 129:.\Generated_Source\PSoC4/UART_SCB_IRQ.c **** *   Add custom code between the coments to keep the next version of this file
 130:.\Generated_Source\PSoC4/UART_SCB_IRQ.c **** *   from over writting your code.
 131:.\Generated_Source\PSoC4/UART_SCB_IRQ.c **** *
 132:.\Generated_Source\PSoC4/UART_SCB_IRQ.c **** * Parameters:  
 133:.\Generated_Source\PSoC4/UART_SCB_IRQ.c **** *   None
 134:.\Generated_Source\PSoC4/UART_SCB_IRQ.c **** *
 135:.\Generated_Source\PSoC4/UART_SCB_IRQ.c **** * Return:
 136:.\Generated_Source\PSoC4/UART_SCB_IRQ.c **** *   None
 137:.\Generated_Source\PSoC4/UART_SCB_IRQ.c **** *
 138:.\Generated_Source\PSoC4/UART_SCB_IRQ.c **** *******************************************************************************/
 139:.\Generated_Source\PSoC4/UART_SCB_IRQ.c **** CY_ISR(UART_SCB_IRQ_Interrupt)
 140:.\Generated_Source\PSoC4/UART_SCB_IRQ.c **** {
 135              		.loc 1 140 0
 136              		.cfi_startproc
 137 0000 80B5     		push	{r7, lr}
 138              		.cfi_def_cfa_offset 8
 139              		.cfi_offset 7, -8
 140              		.cfi_offset 14, -4
 141 0002 00AF     		add	r7, sp, #0
 142              		.cfi_def_cfa_register 7
 141:.\Generated_Source\PSoC4/UART_SCB_IRQ.c ****     /*  Place your Interrupt code here. */
 142:.\Generated_Source\PSoC4/UART_SCB_IRQ.c ****     /* `#START UART_SCB_IRQ_Interrupt` */
 143:.\Generated_Source\PSoC4/UART_SCB_IRQ.c ****     Pin_R_Write(!Pin_R_Read());
ARM GAS  C:\Users\KasperSK\AppData\Local\Temp\ccIN3L7O.s 			page 6


 143              		.loc 1 143 0
 144 0004 FFF7FEFF 		bl	Pin_R_Read
 145 0008 031C     		mov	r3, r0
 146 000a 5A42     		neg	r2, r3
 147 000c 5341     		adc	r3, r3, r2
 148 000e DBB2     		uxtb	r3, r3
 149 0010 181C     		mov	r0, r3
 150 0012 FFF7FEFF 		bl	Pin_R_Write
 144:.\Generated_Source\PSoC4/UART_SCB_IRQ.c ****     /* `#END` */
 145:.\Generated_Source\PSoC4/UART_SCB_IRQ.c **** }
 151              		.loc 1 145 0
 152 0016 BD46     		mov	sp, r7
 153              		@ sp needed
 154 0018 80BD     		pop	{r7, pc}
 155              		.cfi_endproc
 156              	.LFE36:
 157              		.size	UART_SCB_IRQ_Interrupt, .-UART_SCB_IRQ_Interrupt
 158 001a C046     		.section	.text.UART_SCB_IRQ_SetVector,"ax",%progbits
 159              		.align	2
 160              		.global	UART_SCB_IRQ_SetVector
 161              		.code	16
 162              		.thumb_func
 163              		.type	UART_SCB_IRQ_SetVector, %function
 164              	UART_SCB_IRQ_SetVector:
 165              	.LFB37:
 146:.\Generated_Source\PSoC4/UART_SCB_IRQ.c **** 
 147:.\Generated_Source\PSoC4/UART_SCB_IRQ.c **** 
 148:.\Generated_Source\PSoC4/UART_SCB_IRQ.c **** /*******************************************************************************
 149:.\Generated_Source\PSoC4/UART_SCB_IRQ.c **** * Function Name: UART_SCB_IRQ_SetVector
 150:.\Generated_Source\PSoC4/UART_SCB_IRQ.c **** ********************************************************************************
 151:.\Generated_Source\PSoC4/UART_SCB_IRQ.c **** *
 152:.\Generated_Source\PSoC4/UART_SCB_IRQ.c **** * Summary:
 153:.\Generated_Source\PSoC4/UART_SCB_IRQ.c **** *   Change the ISR vector for the Interrupt. Note calling UART_SCB_IRQ_Start
 154:.\Generated_Source\PSoC4/UART_SCB_IRQ.c **** *   will override any effect this method would have had. To set the vector 
 155:.\Generated_Source\PSoC4/UART_SCB_IRQ.c **** *   before the component has been started use UART_SCB_IRQ_StartEx instead.
 156:.\Generated_Source\PSoC4/UART_SCB_IRQ.c **** *
 157:.\Generated_Source\PSoC4/UART_SCB_IRQ.c **** * Parameters:
 158:.\Generated_Source\PSoC4/UART_SCB_IRQ.c **** *   address: Address of the ISR to set in the interrupt vector table.
 159:.\Generated_Source\PSoC4/UART_SCB_IRQ.c **** *
 160:.\Generated_Source\PSoC4/UART_SCB_IRQ.c **** * Return:
 161:.\Generated_Source\PSoC4/UART_SCB_IRQ.c **** *   None
 162:.\Generated_Source\PSoC4/UART_SCB_IRQ.c **** *
 163:.\Generated_Source\PSoC4/UART_SCB_IRQ.c **** *******************************************************************************/
 164:.\Generated_Source\PSoC4/UART_SCB_IRQ.c **** void UART_SCB_IRQ_SetVector(cyisraddress address)
 165:.\Generated_Source\PSoC4/UART_SCB_IRQ.c **** {
 166              		.loc 1 165 0
 167              		.cfi_startproc
 168 0000 80B5     		push	{r7, lr}
 169              		.cfi_def_cfa_offset 8
 170              		.cfi_offset 7, -8
 171              		.cfi_offset 14, -4
 172 0002 82B0     		sub	sp, sp, #8
 173              		.cfi_def_cfa_offset 16
 174 0004 00AF     		add	r7, sp, #0
 175              		.cfi_def_cfa_register 7
 176 0006 7860     		str	r0, [r7, #4]
 166:.\Generated_Source\PSoC4/UART_SCB_IRQ.c ****     CyRamVectors[CYINT_IRQ_BASE + UART_SCB_IRQ__INTC_NUMBER] = address;
ARM GAS  C:\Users\KasperSK\AppData\Local\Temp\ccIN3L7O.s 			page 7


 177              		.loc 1 166 0
 178 0008 024B     		ldr	r3, .L10
 179 000a 7A68     		ldr	r2, [r7, #4]
 180 000c 9A66     		str	r2, [r3, #104]
 167:.\Generated_Source\PSoC4/UART_SCB_IRQ.c **** }
 181              		.loc 1 167 0
 182 000e BD46     		mov	sp, r7
 183 0010 02B0     		add	sp, sp, #8
 184              		@ sp needed
 185 0012 80BD     		pop	{r7, pc}
 186              	.L11:
 187              		.align	2
 188              	.L10:
 189 0014 00000000 		.word	CyRamVectors
 190              		.cfi_endproc
 191              	.LFE37:
 192              		.size	UART_SCB_IRQ_SetVector, .-UART_SCB_IRQ_SetVector
 193              		.section	.text.UART_SCB_IRQ_GetVector,"ax",%progbits
 194              		.align	2
 195              		.global	UART_SCB_IRQ_GetVector
 196              		.code	16
 197              		.thumb_func
 198              		.type	UART_SCB_IRQ_GetVector, %function
 199              	UART_SCB_IRQ_GetVector:
 200              	.LFB38:
 168:.\Generated_Source\PSoC4/UART_SCB_IRQ.c **** 
 169:.\Generated_Source\PSoC4/UART_SCB_IRQ.c **** 
 170:.\Generated_Source\PSoC4/UART_SCB_IRQ.c **** /*******************************************************************************
 171:.\Generated_Source\PSoC4/UART_SCB_IRQ.c **** * Function Name: UART_SCB_IRQ_GetVector
 172:.\Generated_Source\PSoC4/UART_SCB_IRQ.c **** ********************************************************************************
 173:.\Generated_Source\PSoC4/UART_SCB_IRQ.c **** *
 174:.\Generated_Source\PSoC4/UART_SCB_IRQ.c **** * Summary:
 175:.\Generated_Source\PSoC4/UART_SCB_IRQ.c **** *   Gets the "address" of the current ISR vector for the Interrupt.
 176:.\Generated_Source\PSoC4/UART_SCB_IRQ.c **** *
 177:.\Generated_Source\PSoC4/UART_SCB_IRQ.c **** * Parameters:
 178:.\Generated_Source\PSoC4/UART_SCB_IRQ.c **** *   None
 179:.\Generated_Source\PSoC4/UART_SCB_IRQ.c **** *
 180:.\Generated_Source\PSoC4/UART_SCB_IRQ.c **** * Return:
 181:.\Generated_Source\PSoC4/UART_SCB_IRQ.c **** *   Address of the ISR in the interrupt vector table.
 182:.\Generated_Source\PSoC4/UART_SCB_IRQ.c **** *
 183:.\Generated_Source\PSoC4/UART_SCB_IRQ.c **** *******************************************************************************/
 184:.\Generated_Source\PSoC4/UART_SCB_IRQ.c **** cyisraddress UART_SCB_IRQ_GetVector(void)
 185:.\Generated_Source\PSoC4/UART_SCB_IRQ.c **** {
 201              		.loc 1 185 0
 202              		.cfi_startproc
 203 0000 80B5     		push	{r7, lr}
 204              		.cfi_def_cfa_offset 8
 205              		.cfi_offset 7, -8
 206              		.cfi_offset 14, -4
 207 0002 00AF     		add	r7, sp, #0
 208              		.cfi_def_cfa_register 7
 186:.\Generated_Source\PSoC4/UART_SCB_IRQ.c ****     return CyRamVectors[CYINT_IRQ_BASE + UART_SCB_IRQ__INTC_NUMBER];
 209              		.loc 1 186 0
 210 0004 024B     		ldr	r3, .L14
 211 0006 9B6E     		ldr	r3, [r3, #104]
 187:.\Generated_Source\PSoC4/UART_SCB_IRQ.c **** }
 212              		.loc 1 187 0
ARM GAS  C:\Users\KasperSK\AppData\Local\Temp\ccIN3L7O.s 			page 8


 213 0008 181C     		mov	r0, r3
 214 000a BD46     		mov	sp, r7
 215              		@ sp needed
 216 000c 80BD     		pop	{r7, pc}
 217              	.L15:
 218 000e C046     		.align	2
 219              	.L14:
 220 0010 00000000 		.word	CyRamVectors
 221              		.cfi_endproc
 222              	.LFE38:
 223              		.size	UART_SCB_IRQ_GetVector, .-UART_SCB_IRQ_GetVector
 224              		.section	.text.UART_SCB_IRQ_SetPriority,"ax",%progbits
 225              		.align	2
 226              		.global	UART_SCB_IRQ_SetPriority
 227              		.code	16
 228              		.thumb_func
 229              		.type	UART_SCB_IRQ_SetPriority, %function
 230              	UART_SCB_IRQ_SetPriority:
 231              	.LFB39:
 188:.\Generated_Source\PSoC4/UART_SCB_IRQ.c **** 
 189:.\Generated_Source\PSoC4/UART_SCB_IRQ.c **** 
 190:.\Generated_Source\PSoC4/UART_SCB_IRQ.c **** /*******************************************************************************
 191:.\Generated_Source\PSoC4/UART_SCB_IRQ.c **** * Function Name: UART_SCB_IRQ_SetPriority
 192:.\Generated_Source\PSoC4/UART_SCB_IRQ.c **** ********************************************************************************
 193:.\Generated_Source\PSoC4/UART_SCB_IRQ.c **** *
 194:.\Generated_Source\PSoC4/UART_SCB_IRQ.c **** * Summary:
 195:.\Generated_Source\PSoC4/UART_SCB_IRQ.c **** *   Sets the Priority of the Interrupt. Note calling UART_SCB_IRQ_Start
 196:.\Generated_Source\PSoC4/UART_SCB_IRQ.c **** *   or UART_SCB_IRQ_StartEx will override any effect this method would 
 197:.\Generated_Source\PSoC4/UART_SCB_IRQ.c **** *   have had. This method should only be called after UART_SCB_IRQ_Start or 
 198:.\Generated_Source\PSoC4/UART_SCB_IRQ.c **** *   UART_SCB_IRQ_StartEx has been called. To set the initial
 199:.\Generated_Source\PSoC4/UART_SCB_IRQ.c **** *   priority for the component use the cydwr file in the tool.
 200:.\Generated_Source\PSoC4/UART_SCB_IRQ.c **** *
 201:.\Generated_Source\PSoC4/UART_SCB_IRQ.c **** * Parameters:
 202:.\Generated_Source\PSoC4/UART_SCB_IRQ.c **** *   priority: Priority of the interrupt. 0 - 3, 0 being the highest.
 203:.\Generated_Source\PSoC4/UART_SCB_IRQ.c **** *
 204:.\Generated_Source\PSoC4/UART_SCB_IRQ.c **** * Return:
 205:.\Generated_Source\PSoC4/UART_SCB_IRQ.c **** *   None
 206:.\Generated_Source\PSoC4/UART_SCB_IRQ.c **** *
 207:.\Generated_Source\PSoC4/UART_SCB_IRQ.c **** *******************************************************************************/
 208:.\Generated_Source\PSoC4/UART_SCB_IRQ.c **** void UART_SCB_IRQ_SetPriority(uint8 priority)
 209:.\Generated_Source\PSoC4/UART_SCB_IRQ.c **** {
 232              		.loc 1 209 0
 233              		.cfi_startproc
 234 0000 90B5     		push	{r4, r7, lr}
 235              		.cfi_def_cfa_offset 12
 236              		.cfi_offset 4, -12
 237              		.cfi_offset 7, -8
 238              		.cfi_offset 14, -4
 239 0002 85B0     		sub	sp, sp, #20
 240              		.cfi_def_cfa_offset 32
 241 0004 00AF     		add	r7, sp, #0
 242              		.cfi_def_cfa_register 7
 243 0006 021C     		mov	r2, r0
 244 0008 FB1D     		add	r3, r7, #7
 245 000a 1A70     		strb	r2, [r3]
 210:.\Generated_Source\PSoC4/UART_SCB_IRQ.c **** 	uint8 interruptState;
 211:.\Generated_Source\PSoC4/UART_SCB_IRQ.c ****     uint32 priorityOffset = ((UART_SCB_IRQ__INTC_NUMBER % 4u) * 8u) + 6u;
ARM GAS  C:\Users\KasperSK\AppData\Local\Temp\ccIN3L7O.s 			page 9


 246              		.loc 1 211 0
 247 000c 1623     		mov	r3, #22
 248 000e FB60     		str	r3, [r7, #12]
 212:.\Generated_Source\PSoC4/UART_SCB_IRQ.c ****     
 213:.\Generated_Source\PSoC4/UART_SCB_IRQ.c **** 	interruptState = CyEnterCriticalSection();
 249              		.loc 1 213 0
 250 0010 3C1C     		mov	r4, r7
 251 0012 0B34     		add	r4, r4, #11
 252 0014 FFF7FEFF 		bl	CyEnterCriticalSection
 253 0018 031C     		mov	r3, r0
 254 001a 2370     		strb	r3, [r4]
 214:.\Generated_Source\PSoC4/UART_SCB_IRQ.c ****     *UART_SCB_IRQ_INTC_PRIOR = (*UART_SCB_IRQ_INTC_PRIOR & (uint32)(~UART_SCB_IRQ__INTC_PRIOR_MASK)
 255              		.loc 1 214 0
 256 001c 0A4B     		ldr	r3, .L17
 257 001e 0A4A     		ldr	r2, .L17
 258 0020 1168     		ldr	r1, [r2]
 259 0022 0A4A     		ldr	r2, .L17+4
 260 0024 1140     		and	r1, r2
 215:.\Generated_Source\PSoC4/UART_SCB_IRQ.c ****                                     ((uint32)priority << priorityOffset);
 261              		.loc 1 215 0
 262 0026 FA1D     		add	r2, r7, #7
 263 0028 1078     		ldrb	r0, [r2]
 264 002a FA68     		ldr	r2, [r7, #12]
 265 002c 041C     		mov	r4, r0
 266 002e 9440     		lsl	r4, r4, r2
 267 0030 221C     		mov	r2, r4
 214:.\Generated_Source\PSoC4/UART_SCB_IRQ.c ****     *UART_SCB_IRQ_INTC_PRIOR = (*UART_SCB_IRQ_INTC_PRIOR & (uint32)(~UART_SCB_IRQ__INTC_PRIOR_MASK)
 268              		.loc 1 214 0
 269 0032 0A43     		orr	r2, r1
 270 0034 1A60     		str	r2, [r3]
 216:.\Generated_Source\PSoC4/UART_SCB_IRQ.c **** 	CyExitCriticalSection(interruptState);
 271              		.loc 1 216 0
 272 0036 3B1C     		mov	r3, r7
 273 0038 0B33     		add	r3, r3, #11
 274 003a 1B78     		ldrb	r3, [r3]
 275 003c 181C     		mov	r0, r3
 276 003e FFF7FEFF 		bl	CyExitCriticalSection
 217:.\Generated_Source\PSoC4/UART_SCB_IRQ.c **** }
 277              		.loc 1 217 0
 278 0042 BD46     		mov	sp, r7
 279 0044 05B0     		add	sp, sp, #20
 280              		@ sp needed
 281 0046 90BD     		pop	{r4, r7, pc}
 282              	.L18:
 283              		.align	2
 284              	.L17:
 285 0048 08E400E0 		.word	-536812536
 286 004c FFFF3FFF 		.word	-12582913
 287              		.cfi_endproc
 288              	.LFE39:
 289              		.size	UART_SCB_IRQ_SetPriority, .-UART_SCB_IRQ_SetPriority
 290              		.section	.text.UART_SCB_IRQ_GetPriority,"ax",%progbits
 291              		.align	2
 292              		.global	UART_SCB_IRQ_GetPriority
 293              		.code	16
 294              		.thumb_func
 295              		.type	UART_SCB_IRQ_GetPriority, %function
ARM GAS  C:\Users\KasperSK\AppData\Local\Temp\ccIN3L7O.s 			page 10


 296              	UART_SCB_IRQ_GetPriority:
 297              	.LFB40:
 218:.\Generated_Source\PSoC4/UART_SCB_IRQ.c **** 
 219:.\Generated_Source\PSoC4/UART_SCB_IRQ.c **** 
 220:.\Generated_Source\PSoC4/UART_SCB_IRQ.c **** /*******************************************************************************
 221:.\Generated_Source\PSoC4/UART_SCB_IRQ.c **** * Function Name: UART_SCB_IRQ_GetPriority
 222:.\Generated_Source\PSoC4/UART_SCB_IRQ.c **** ********************************************************************************
 223:.\Generated_Source\PSoC4/UART_SCB_IRQ.c **** *
 224:.\Generated_Source\PSoC4/UART_SCB_IRQ.c **** * Summary:
 225:.\Generated_Source\PSoC4/UART_SCB_IRQ.c **** *   Gets the Priority of the Interrupt.
 226:.\Generated_Source\PSoC4/UART_SCB_IRQ.c **** *
 227:.\Generated_Source\PSoC4/UART_SCB_IRQ.c **** * Parameters:
 228:.\Generated_Source\PSoC4/UART_SCB_IRQ.c **** *   None
 229:.\Generated_Source\PSoC4/UART_SCB_IRQ.c **** *
 230:.\Generated_Source\PSoC4/UART_SCB_IRQ.c **** * Return:
 231:.\Generated_Source\PSoC4/UART_SCB_IRQ.c **** *   Priority of the interrupt. 0 - 3, 0 being the highest.
 232:.\Generated_Source\PSoC4/UART_SCB_IRQ.c **** *
 233:.\Generated_Source\PSoC4/UART_SCB_IRQ.c **** *******************************************************************************/
 234:.\Generated_Source\PSoC4/UART_SCB_IRQ.c **** uint8 UART_SCB_IRQ_GetPriority(void)
 235:.\Generated_Source\PSoC4/UART_SCB_IRQ.c **** {
 298              		.loc 1 235 0
 299              		.cfi_startproc
 300 0000 80B5     		push	{r7, lr}
 301              		.cfi_def_cfa_offset 8
 302              		.cfi_offset 7, -8
 303              		.cfi_offset 14, -4
 304 0002 82B0     		sub	sp, sp, #8
 305              		.cfi_def_cfa_offset 16
 306 0004 00AF     		add	r7, sp, #0
 307              		.cfi_def_cfa_register 7
 236:.\Generated_Source\PSoC4/UART_SCB_IRQ.c ****     uint32 priority;
 237:.\Generated_Source\PSoC4/UART_SCB_IRQ.c **** 	uint32 priorityOffset = ((UART_SCB_IRQ__INTC_NUMBER % 4u) * 8u) + 6u;
 308              		.loc 1 237 0
 309 0006 1623     		mov	r3, #22
 310 0008 7B60     		str	r3, [r7, #4]
 238:.\Generated_Source\PSoC4/UART_SCB_IRQ.c **** 
 239:.\Generated_Source\PSoC4/UART_SCB_IRQ.c ****     priority = (*UART_SCB_IRQ_INTC_PRIOR & UART_SCB_IRQ__INTC_PRIOR_MASK) >> priorityOffset;
 311              		.loc 1 239 0
 312 000a 084B     		ldr	r3, .L21
 313 000c 1A68     		ldr	r2, [r3]
 314 000e C023     		mov	r3, #192
 315 0010 1B04     		lsl	r3, r3, #16
 316 0012 1A40     		and	r2, r3
 317 0014 7B68     		ldr	r3, [r7, #4]
 318 0016 111C     		mov	r1, r2
 319 0018 D940     		lsr	r1, r1, r3
 320 001a 0B1C     		mov	r3, r1
 321 001c 3B60     		str	r3, [r7]
 240:.\Generated_Source\PSoC4/UART_SCB_IRQ.c **** 
 241:.\Generated_Source\PSoC4/UART_SCB_IRQ.c ****     return (uint8)priority;
 322              		.loc 1 241 0
 323 001e 3B68     		ldr	r3, [r7]
 324 0020 DBB2     		uxtb	r3, r3
 242:.\Generated_Source\PSoC4/UART_SCB_IRQ.c **** }
 325              		.loc 1 242 0
 326 0022 181C     		mov	r0, r3
 327 0024 BD46     		mov	sp, r7
ARM GAS  C:\Users\KasperSK\AppData\Local\Temp\ccIN3L7O.s 			page 11


 328 0026 02B0     		add	sp, sp, #8
 329              		@ sp needed
 330 0028 80BD     		pop	{r7, pc}
 331              	.L22:
 332 002a C046     		.align	2
 333              	.L21:
 334 002c 08E400E0 		.word	-536812536
 335              		.cfi_endproc
 336              	.LFE40:
 337              		.size	UART_SCB_IRQ_GetPriority, .-UART_SCB_IRQ_GetPriority
 338              		.section	.text.UART_SCB_IRQ_Enable,"ax",%progbits
 339              		.align	2
 340              		.global	UART_SCB_IRQ_Enable
 341              		.code	16
 342              		.thumb_func
 343              		.type	UART_SCB_IRQ_Enable, %function
 344              	UART_SCB_IRQ_Enable:
 345              	.LFB41:
 243:.\Generated_Source\PSoC4/UART_SCB_IRQ.c **** 
 244:.\Generated_Source\PSoC4/UART_SCB_IRQ.c **** 
 245:.\Generated_Source\PSoC4/UART_SCB_IRQ.c **** /*******************************************************************************
 246:.\Generated_Source\PSoC4/UART_SCB_IRQ.c **** * Function Name: UART_SCB_IRQ_Enable
 247:.\Generated_Source\PSoC4/UART_SCB_IRQ.c **** ********************************************************************************
 248:.\Generated_Source\PSoC4/UART_SCB_IRQ.c **** *
 249:.\Generated_Source\PSoC4/UART_SCB_IRQ.c **** * Summary:
 250:.\Generated_Source\PSoC4/UART_SCB_IRQ.c **** *   Enables the interrupt.
 251:.\Generated_Source\PSoC4/UART_SCB_IRQ.c **** *
 252:.\Generated_Source\PSoC4/UART_SCB_IRQ.c **** * Parameters:
 253:.\Generated_Source\PSoC4/UART_SCB_IRQ.c **** *   None
 254:.\Generated_Source\PSoC4/UART_SCB_IRQ.c **** *
 255:.\Generated_Source\PSoC4/UART_SCB_IRQ.c **** * Return:
 256:.\Generated_Source\PSoC4/UART_SCB_IRQ.c **** *   None
 257:.\Generated_Source\PSoC4/UART_SCB_IRQ.c **** *
 258:.\Generated_Source\PSoC4/UART_SCB_IRQ.c **** *******************************************************************************/
 259:.\Generated_Source\PSoC4/UART_SCB_IRQ.c **** void UART_SCB_IRQ_Enable(void)
 260:.\Generated_Source\PSoC4/UART_SCB_IRQ.c **** {
 346              		.loc 1 260 0
 347              		.cfi_startproc
 348 0000 80B5     		push	{r7, lr}
 349              		.cfi_def_cfa_offset 8
 350              		.cfi_offset 7, -8
 351              		.cfi_offset 14, -4
 352 0002 00AF     		add	r7, sp, #0
 353              		.cfi_def_cfa_register 7
 261:.\Generated_Source\PSoC4/UART_SCB_IRQ.c ****     /* Enable the general interrupt. */
 262:.\Generated_Source\PSoC4/UART_SCB_IRQ.c ****     *UART_SCB_IRQ_INTC_SET_EN = UART_SCB_IRQ__INTC_MASK;
 354              		.loc 1 262 0
 355 0004 024B     		ldr	r3, .L24
 356 0006 8022     		mov	r2, #128
 357 0008 D200     		lsl	r2, r2, #3
 358 000a 1A60     		str	r2, [r3]
 263:.\Generated_Source\PSoC4/UART_SCB_IRQ.c **** }
 359              		.loc 1 263 0
 360 000c BD46     		mov	sp, r7
 361              		@ sp needed
 362 000e 80BD     		pop	{r7, pc}
 363              	.L25:
ARM GAS  C:\Users\KasperSK\AppData\Local\Temp\ccIN3L7O.s 			page 12


 364              		.align	2
 365              	.L24:
 366 0010 00E100E0 		.word	-536813312
 367              		.cfi_endproc
 368              	.LFE41:
 369              		.size	UART_SCB_IRQ_Enable, .-UART_SCB_IRQ_Enable
 370              		.section	.text.UART_SCB_IRQ_GetState,"ax",%progbits
 371              		.align	2
 372              		.global	UART_SCB_IRQ_GetState
 373              		.code	16
 374              		.thumb_func
 375              		.type	UART_SCB_IRQ_GetState, %function
 376              	UART_SCB_IRQ_GetState:
 377              	.LFB42:
 264:.\Generated_Source\PSoC4/UART_SCB_IRQ.c **** 
 265:.\Generated_Source\PSoC4/UART_SCB_IRQ.c **** 
 266:.\Generated_Source\PSoC4/UART_SCB_IRQ.c **** /*******************************************************************************
 267:.\Generated_Source\PSoC4/UART_SCB_IRQ.c **** * Function Name: UART_SCB_IRQ_GetState
 268:.\Generated_Source\PSoC4/UART_SCB_IRQ.c **** ********************************************************************************
 269:.\Generated_Source\PSoC4/UART_SCB_IRQ.c **** *
 270:.\Generated_Source\PSoC4/UART_SCB_IRQ.c **** * Summary:
 271:.\Generated_Source\PSoC4/UART_SCB_IRQ.c **** *   Gets the state (enabled, disabled) of the Interrupt.
 272:.\Generated_Source\PSoC4/UART_SCB_IRQ.c **** *
 273:.\Generated_Source\PSoC4/UART_SCB_IRQ.c **** * Parameters:
 274:.\Generated_Source\PSoC4/UART_SCB_IRQ.c **** *   None
 275:.\Generated_Source\PSoC4/UART_SCB_IRQ.c **** *
 276:.\Generated_Source\PSoC4/UART_SCB_IRQ.c **** * Return:
 277:.\Generated_Source\PSoC4/UART_SCB_IRQ.c **** *   1 if enabled, 0 if disabled.
 278:.\Generated_Source\PSoC4/UART_SCB_IRQ.c **** *
 279:.\Generated_Source\PSoC4/UART_SCB_IRQ.c **** *******************************************************************************/
 280:.\Generated_Source\PSoC4/UART_SCB_IRQ.c **** uint8 UART_SCB_IRQ_GetState(void)
 281:.\Generated_Source\PSoC4/UART_SCB_IRQ.c **** {
 378              		.loc 1 281 0
 379              		.cfi_startproc
 380 0000 80B5     		push	{r7, lr}
 381              		.cfi_def_cfa_offset 8
 382              		.cfi_offset 7, -8
 383              		.cfi_offset 14, -4
 384 0002 00AF     		add	r7, sp, #0
 385              		.cfi_def_cfa_register 7
 282:.\Generated_Source\PSoC4/UART_SCB_IRQ.c ****     /* Get the state of the general interrupt. */
 283:.\Generated_Source\PSoC4/UART_SCB_IRQ.c ****     return ((*UART_SCB_IRQ_INTC_SET_EN & (uint32)UART_SCB_IRQ__INTC_MASK) != 0u) ? 1u:0u;
 386              		.loc 1 283 0
 387 0004 054B     		ldr	r3, .L30
 388 0006 1A68     		ldr	r2, [r3]
 389 0008 8023     		mov	r3, #128
 390 000a DB00     		lsl	r3, r3, #3
 391 000c 1340     		and	r3, r2
 392 000e 01D0     		beq	.L27
 393              		.loc 1 283 0 is_stmt 0 discriminator 1
 394 0010 0123     		mov	r3, #1
 395 0012 00E0     		b	.L28
 396              	.L27:
 397              		.loc 1 283 0 discriminator 2
 398 0014 0023     		mov	r3, #0
 399              	.L28:
 284:.\Generated_Source\PSoC4/UART_SCB_IRQ.c **** }
ARM GAS  C:\Users\KasperSK\AppData\Local\Temp\ccIN3L7O.s 			page 13


 400              		.loc 1 284 0 is_stmt 1 discriminator 3
 401 0016 181C     		mov	r0, r3
 402 0018 BD46     		mov	sp, r7
 403              		@ sp needed
 404 001a 80BD     		pop	{r7, pc}
 405              	.L31:
 406              		.align	2
 407              	.L30:
 408 001c 00E100E0 		.word	-536813312
 409              		.cfi_endproc
 410              	.LFE42:
 411              		.size	UART_SCB_IRQ_GetState, .-UART_SCB_IRQ_GetState
 412              		.section	.text.UART_SCB_IRQ_Disable,"ax",%progbits
 413              		.align	2
 414              		.global	UART_SCB_IRQ_Disable
 415              		.code	16
 416              		.thumb_func
 417              		.type	UART_SCB_IRQ_Disable, %function
 418              	UART_SCB_IRQ_Disable:
 419              	.LFB43:
 285:.\Generated_Source\PSoC4/UART_SCB_IRQ.c **** 
 286:.\Generated_Source\PSoC4/UART_SCB_IRQ.c **** 
 287:.\Generated_Source\PSoC4/UART_SCB_IRQ.c **** /*******************************************************************************
 288:.\Generated_Source\PSoC4/UART_SCB_IRQ.c **** * Function Name: UART_SCB_IRQ_Disable
 289:.\Generated_Source\PSoC4/UART_SCB_IRQ.c **** ********************************************************************************
 290:.\Generated_Source\PSoC4/UART_SCB_IRQ.c **** *
 291:.\Generated_Source\PSoC4/UART_SCB_IRQ.c **** * Summary:
 292:.\Generated_Source\PSoC4/UART_SCB_IRQ.c **** *   Disables the Interrupt.
 293:.\Generated_Source\PSoC4/UART_SCB_IRQ.c **** *
 294:.\Generated_Source\PSoC4/UART_SCB_IRQ.c **** * Parameters:
 295:.\Generated_Source\PSoC4/UART_SCB_IRQ.c **** *   None
 296:.\Generated_Source\PSoC4/UART_SCB_IRQ.c **** *
 297:.\Generated_Source\PSoC4/UART_SCB_IRQ.c **** * Return:
 298:.\Generated_Source\PSoC4/UART_SCB_IRQ.c **** *   None
 299:.\Generated_Source\PSoC4/UART_SCB_IRQ.c **** *
 300:.\Generated_Source\PSoC4/UART_SCB_IRQ.c **** *******************************************************************************/
 301:.\Generated_Source\PSoC4/UART_SCB_IRQ.c **** void UART_SCB_IRQ_Disable(void)
 302:.\Generated_Source\PSoC4/UART_SCB_IRQ.c **** {
 420              		.loc 1 302 0
 421              		.cfi_startproc
 422 0000 80B5     		push	{r7, lr}
 423              		.cfi_def_cfa_offset 8
 424              		.cfi_offset 7, -8
 425              		.cfi_offset 14, -4
 426 0002 00AF     		add	r7, sp, #0
 427              		.cfi_def_cfa_register 7
 303:.\Generated_Source\PSoC4/UART_SCB_IRQ.c ****     /* Disable the general interrupt. */
 304:.\Generated_Source\PSoC4/UART_SCB_IRQ.c ****     *UART_SCB_IRQ_INTC_CLR_EN = UART_SCB_IRQ__INTC_MASK;
 428              		.loc 1 304 0
 429 0004 024B     		ldr	r3, .L33
 430 0006 8022     		mov	r2, #128
 431 0008 D200     		lsl	r2, r2, #3
 432 000a 1A60     		str	r2, [r3]
 305:.\Generated_Source\PSoC4/UART_SCB_IRQ.c **** }
 433              		.loc 1 305 0
 434 000c BD46     		mov	sp, r7
 435              		@ sp needed
ARM GAS  C:\Users\KasperSK\AppData\Local\Temp\ccIN3L7O.s 			page 14


 436 000e 80BD     		pop	{r7, pc}
 437              	.L34:
 438              		.align	2
 439              	.L33:
 440 0010 80E100E0 		.word	-536813184
 441              		.cfi_endproc
 442              	.LFE43:
 443              		.size	UART_SCB_IRQ_Disable, .-UART_SCB_IRQ_Disable
 444              		.section	.text.UART_SCB_IRQ_SetPending,"ax",%progbits
 445              		.align	2
 446              		.global	UART_SCB_IRQ_SetPending
 447              		.code	16
 448              		.thumb_func
 449              		.type	UART_SCB_IRQ_SetPending, %function
 450              	UART_SCB_IRQ_SetPending:
 451              	.LFB44:
 306:.\Generated_Source\PSoC4/UART_SCB_IRQ.c **** 
 307:.\Generated_Source\PSoC4/UART_SCB_IRQ.c **** 
 308:.\Generated_Source\PSoC4/UART_SCB_IRQ.c **** /*******************************************************************************
 309:.\Generated_Source\PSoC4/UART_SCB_IRQ.c **** * Function Name: UART_SCB_IRQ_SetPending
 310:.\Generated_Source\PSoC4/UART_SCB_IRQ.c **** ********************************************************************************
 311:.\Generated_Source\PSoC4/UART_SCB_IRQ.c **** *
 312:.\Generated_Source\PSoC4/UART_SCB_IRQ.c **** * Summary:
 313:.\Generated_Source\PSoC4/UART_SCB_IRQ.c **** *   Causes the Interrupt to enter the pending state, a software method of
 314:.\Generated_Source\PSoC4/UART_SCB_IRQ.c **** *   generating the interrupt.
 315:.\Generated_Source\PSoC4/UART_SCB_IRQ.c **** *
 316:.\Generated_Source\PSoC4/UART_SCB_IRQ.c **** * Parameters:
 317:.\Generated_Source\PSoC4/UART_SCB_IRQ.c **** *   None
 318:.\Generated_Source\PSoC4/UART_SCB_IRQ.c **** *
 319:.\Generated_Source\PSoC4/UART_SCB_IRQ.c **** * Return:
 320:.\Generated_Source\PSoC4/UART_SCB_IRQ.c **** *   None
 321:.\Generated_Source\PSoC4/UART_SCB_IRQ.c **** *
 322:.\Generated_Source\PSoC4/UART_SCB_IRQ.c **** *******************************************************************************/
 323:.\Generated_Source\PSoC4/UART_SCB_IRQ.c **** void UART_SCB_IRQ_SetPending(void)
 324:.\Generated_Source\PSoC4/UART_SCB_IRQ.c **** {
 452              		.loc 1 324 0
 453              		.cfi_startproc
 454 0000 80B5     		push	{r7, lr}
 455              		.cfi_def_cfa_offset 8
 456              		.cfi_offset 7, -8
 457              		.cfi_offset 14, -4
 458 0002 00AF     		add	r7, sp, #0
 459              		.cfi_def_cfa_register 7
 325:.\Generated_Source\PSoC4/UART_SCB_IRQ.c ****     *UART_SCB_IRQ_INTC_SET_PD = UART_SCB_IRQ__INTC_MASK;
 460              		.loc 1 325 0
 461 0004 024B     		ldr	r3, .L36
 462 0006 8022     		mov	r2, #128
 463 0008 D200     		lsl	r2, r2, #3
 464 000a 1A60     		str	r2, [r3]
 326:.\Generated_Source\PSoC4/UART_SCB_IRQ.c **** }
 465              		.loc 1 326 0
 466 000c BD46     		mov	sp, r7
 467              		@ sp needed
 468 000e 80BD     		pop	{r7, pc}
 469              	.L37:
 470              		.align	2
 471              	.L36:
ARM GAS  C:\Users\KasperSK\AppData\Local\Temp\ccIN3L7O.s 			page 15


 472 0010 00E200E0 		.word	-536813056
 473              		.cfi_endproc
 474              	.LFE44:
 475              		.size	UART_SCB_IRQ_SetPending, .-UART_SCB_IRQ_SetPending
 476              		.section	.text.UART_SCB_IRQ_ClearPending,"ax",%progbits
 477              		.align	2
 478              		.global	UART_SCB_IRQ_ClearPending
 479              		.code	16
 480              		.thumb_func
 481              		.type	UART_SCB_IRQ_ClearPending, %function
 482              	UART_SCB_IRQ_ClearPending:
 483              	.LFB45:
 327:.\Generated_Source\PSoC4/UART_SCB_IRQ.c **** 
 328:.\Generated_Source\PSoC4/UART_SCB_IRQ.c **** 
 329:.\Generated_Source\PSoC4/UART_SCB_IRQ.c **** /*******************************************************************************
 330:.\Generated_Source\PSoC4/UART_SCB_IRQ.c **** * Function Name: UART_SCB_IRQ_ClearPending
 331:.\Generated_Source\PSoC4/UART_SCB_IRQ.c **** ********************************************************************************
 332:.\Generated_Source\PSoC4/UART_SCB_IRQ.c **** *
 333:.\Generated_Source\PSoC4/UART_SCB_IRQ.c **** * Summary:
 334:.\Generated_Source\PSoC4/UART_SCB_IRQ.c **** *   Clears a pending interrupt.
 335:.\Generated_Source\PSoC4/UART_SCB_IRQ.c **** *
 336:.\Generated_Source\PSoC4/UART_SCB_IRQ.c **** * Parameters:
 337:.\Generated_Source\PSoC4/UART_SCB_IRQ.c **** *   None
 338:.\Generated_Source\PSoC4/UART_SCB_IRQ.c **** *
 339:.\Generated_Source\PSoC4/UART_SCB_IRQ.c **** * Return:
 340:.\Generated_Source\PSoC4/UART_SCB_IRQ.c **** *   None
 341:.\Generated_Source\PSoC4/UART_SCB_IRQ.c **** *
 342:.\Generated_Source\PSoC4/UART_SCB_IRQ.c **** *******************************************************************************/
 343:.\Generated_Source\PSoC4/UART_SCB_IRQ.c **** void UART_SCB_IRQ_ClearPending(void)
 344:.\Generated_Source\PSoC4/UART_SCB_IRQ.c **** {
 484              		.loc 1 344 0
 485              		.cfi_startproc
 486 0000 80B5     		push	{r7, lr}
 487              		.cfi_def_cfa_offset 8
 488              		.cfi_offset 7, -8
 489              		.cfi_offset 14, -4
 490 0002 00AF     		add	r7, sp, #0
 491              		.cfi_def_cfa_register 7
 345:.\Generated_Source\PSoC4/UART_SCB_IRQ.c ****     *UART_SCB_IRQ_INTC_CLR_PD = UART_SCB_IRQ__INTC_MASK;
 492              		.loc 1 345 0
 493 0004 024B     		ldr	r3, .L39
 494 0006 8022     		mov	r2, #128
 495 0008 D200     		lsl	r2, r2, #3
 496 000a 1A60     		str	r2, [r3]
 346:.\Generated_Source\PSoC4/UART_SCB_IRQ.c **** }
 497              		.loc 1 346 0
 498 000c BD46     		mov	sp, r7
 499              		@ sp needed
 500 000e 80BD     		pop	{r7, pc}
 501              	.L40:
 502              		.align	2
 503              	.L39:
 504 0010 80E200E0 		.word	-536812928
 505              		.cfi_endproc
 506              	.LFE45:
 507              		.size	UART_SCB_IRQ_ClearPending, .-UART_SCB_IRQ_ClearPending
 508              		.text
ARM GAS  C:\Users\KasperSK\AppData\Local\Temp\ccIN3L7O.s 			page 16


 509              	.Letext0:
 510              		.file 2 ".\\Generated_Source\\PSoC4/cytypes.h"